target datalayout = "e-m:e-p270:32:32-p271:32:32-p272:64:64-i64:64-i128:128-f80:128-n8:16:32:64-S128"
target triple = "x86_64-pc-linux-gnu"

%"struct.boost::timer::cpu_times" = type { i64, i64, i64 }
%"class.boost::timer::cpu_timer" = type <{ %"struct.boost::timer::cpu_times", i8, [7 x i8] }>

; Function Attrs: noinline noreturn nounwind uwtable
define linkonce_odr hidden void @__clang_call_terminate(ptr noundef %0) #6 comdat {
  %2 = call ptr @__cxa_begin_catch(ptr %0) #4
  call void @_ZSt9terminatev() #16
  unreachable
}

; Function Attrs: mustprogress nounwind uwtable
define void @_ZN5boost5timer9cpu_timer5startEv(ptr noundef nonnull align 8 dereferenceable(25) %0) #2 align 2 personality ptr @__gxx_personality_v0 {
  %2 = alloca ptr, align 8
  store ptr %0, ptr %2, align 8, !tbaa !3
  %3 = load ptr, ptr %2, align 8
  %4 = getelementptr inbounds nuw %"class.boost::timer::cpu_timer", ptr %3, i32 0, i32 1
  store i8 0, ptr %4, align 8, !tbaa !31
  %5 = getelementptr inbounds nuw %"class.boost::timer::cpu_timer", ptr %3, i32 0, i32 0
  invoke void @_ZN12_GLOBAL__N_113get_cpu_timesERN5boost5timer9cpu_timesE(ptr noundef nonnull align 8 dereferenceable(24) %5)
          to label %6 unwind label %7

6:                                                ; preds = %1
  ret void

7:                                                ; preds = %1
  %8 = landingpad { ptr, i32 }
          catch ptr null
  %9 = extractvalue { ptr, i32 } %8, 0
  call void @__clang_call_terminate(ptr %9) #16
  unreachable
}

; Function Attrs: mustprogress nounwind uwtable
define linkonce_odr hidden noundef zeroext i1 @_ZNK5boost5timer9cpu_timer10is_stoppedEv(ptr noundef nonnull align 8 dereferenceable(25) %0) #2 comdat align 2 {
  %2 = alloca ptr, align 8
  store ptr %0, ptr %2, align 8, !tbaa !3
  %3 = load ptr, ptr %2, align 8
  %4 = getelementptr inbounds nuw %"class.boost::timer::cpu_timer", ptr %3, i32 0, i32 1
  %5 = load i8, ptr %4, align 8, !tbaa !31, !range !43, !noundef !44
  %6 = trunc i8 %5 to i1
  ret i1 %6
}

; Function Attrs: mustprogress nounwind uwtable
define void @_ZN5boost5timer9cpu_timer6resumeEv(ptr noundef nonnull align 8 dereferenceable(25) %0) #2 align 2 {
  %2 = alloca ptr, align 8
  %3 = alloca %"struct.boost::timer::cpu_times", align 8
  store ptr %0, ptr %2, align 8, !tbaa !3
  %4 = load ptr, ptr %2, align 8
  %5 = call noundef zeroext i1 @_ZNK5boost5timer9cpu_timer10is_stoppedEv(ptr noundef nonnull align 8 dereferenceable(25) %4) #4
  br i1 %5, label %6, label %26

6:                                                ; preds = %1
  call void @llvm.lifetime.start.p0(i64 24, ptr %3) #4
  %7 = getelementptr inbounds nuw %"class.boost::timer::cpu_timer", ptr %4, i32 0, i32 0
  call void @llvm.memcpy.p0.p0.i64(ptr align 8 %3, ptr align 8 %7, i64 24, i1 false), !tbaa.struct !45
  call void @_ZN5boost5timer9cpu_timer5startEv(ptr noundef nonnull align 8 dereferenceable(25) %4) #4
  %8 = getelementptr inbounds nuw %"struct.boost::timer::cpu_times", ptr %3, i32 0, i32 0
  %9 = load i64, ptr %8, align 8, !tbaa !27
  %10 = getelementptr inbounds nuw %"class.boost::timer::cpu_timer", ptr %4, i32 0, i32 0
  %11 = getelementptr inbounds nuw %"struct.boost::timer::cpu_times", ptr %10, i32 0, i32 0
  %12 = load i64, ptr %11, align 8, !tbaa !40
  %13 = sub nsw i64 %12, %9
  store i64 %13, ptr %11, align 8, !tbaa !40
  %14 = getelementptr inbounds nuw %"struct.boost::timer::cpu_times", ptr %3, i32 0, i32 1
  %15 = load i64, ptr %14, align 8, !tbaa !25
  %16 = getelementptr inbounds nuw %"class.boost::timer::cpu_timer", ptr %4, i32 0, i32 0
  %17 = getelementptr inbounds nuw %"struct.boost::timer::cpu_times", ptr %16, i32 0, i32 1
  %18 = load i64, ptr %17, align 8, !tbaa !41
  %19 = sub nsw i64 %18, %15
  store i64 %19, ptr %17, align 8, !tbaa !41
  %20 = getelementptr inbounds nuw %"struct.boost::timer::cpu_times", ptr %3, i32 0, i32 2
  %21 = load i64, ptr %20, align 8, !tbaa !23
  %22 = getelementptr inbounds nuw %"class.boost::timer::cpu_timer", ptr %4, i32 0, i32 0
  %23 = getelementptr inbounds nuw %"struct.boost::timer::cpu_times", ptr %22, i32 0, i32 2
  %24 = load i64, ptr %23, align 8, !tbaa !42
  %25 = sub nsw i64 %24, %21
  store i64 %25, ptr %23, align 8, !tbaa !42
  call void @llvm.lifetime.end.p0(i64 24, ptr %3) #4
  br label %26

26:                                               ; preds = %6, %1
  ret void
}