; Function Attrs: mustprogress nounwind uwtable
define void @_ZN5boost5timer9cpu_timer6resumeEv(ptr nocapture noundef nonnull align 8 dereferenceable(25) %0) local_unnamed_addr #1 align 2 personality ptr @__gxx_personality_v0 {
  %2 = getelementptr inbounds nuw i8, ptr %0, i64 24
  %3 = load i8, ptr %2, align 8, !tbaa !45, !range !55, !noundef !56
  %4 = trunc nuw i8 %3 to i1
  br i1 %4, label %5, label %12

5:                                                ; preds = %1
  %.sroa.0.0.copyload = load i64, ptr %0, align 8, !tbaa !49
  %.sroa.4.0..sroa_idx = getelementptr inbounds i8, ptr %0, i64 8
  %.sroa.4.0.copyload = load i64, ptr %.sroa.4.0..sroa_idx, align 8, !tbaa !49
  %.sroa.5.0..sroa_idx = getelementptr inbounds i8, ptr %0, i64 16
  %.sroa.5.0.copyload = load i64, ptr %.sroa.5.0..sroa_idx, align 8, !tbaa !49
  store i8 0, ptr %2, align 8, !tbaa !45
  tail call fastcc void @_ZN12_GLOBAL__N_113get_cpu_timesERN5boost5timer9cpu_timesE(ptr noundef nonnull align 8 dereferenceable(25) %0)
  %6 = load i64, ptr %0, align 8, !tbaa !57
  %7 = sub nsw i64 %6, %.sroa.0.0.copyload
  store i64 %7, ptr %0, align 8, !tbaa !57
  %8 = load i64, ptr %.sroa.4.0..sroa_idx, align 8, !tbaa !58
  %9 = sub nsw i64 %8, %.sroa.4.0.copyload
  store i64 %9, ptr %.sroa.4.0..sroa_idx, align 8, !tbaa !58
  %10 = load i64, ptr %.sroa.5.0..sroa_idx, align 8, !tbaa !59
  %11 = sub nsw i64 %10, %.sroa.5.0.copyload
  store i64 %11, ptr %.sroa.5.0..sroa_idx, align 8, !tbaa !59
  br label %12

12:                                               ; preds = %5, %1
  ret void
}